target datalayout = "e-m:e-p270:32:32-p271:32:32-p272:64:64-i64:64-i128:128-f80:128-n8:16:32:64-S128"
target triple = "x86_64-pc-linux-gnu"

%class.QString = type { %struct.QArrayDataPointer }
%struct.QArrayDataPointer = type { ptr, ptr, i64 }
%class.WelcomePage = type { %class.QFrame, ptr, %class.QString, %class.QString, ptr, ptr }
%class.QFrame = type { %class.QWidget }
%class.QWidget = type { %class.QObject, %class.QPaintDevice.base, ptr }
%class.QObject = type { ptr, %class.QScopedPointer }
%class.QScopedPointer = type { ptr }
%class.QPaintDevice.base = type <{ ptr, i16 }>
%class.Ui_WelcomePage = type { ptr, ptr, ptr, ptr, ptr, ptr, ptr, ptr, ptr, ptr, ptr, ptr, ptr, ptr, ptr, ptr, ptr, ptr, ptr, ptr, ptr, ptr, ptr, ptr }
%class.QList = type { %struct.QArrayDataPointer.0 }
%struct.QArrayDataPointer.0 = type { ptr, ptr, i64 }

; Function Attrs: mustprogress nounwind uwtable
define linkonce_odr void @_ZN17QArrayDataPointerI7QStringEC2Ev(ptr noundef nonnull align 8 dereferenceable(24) %0) unnamed_addr #1 comdat align 2 {
  %2 = alloca ptr, align 8
  store ptr %0, ptr %2, align 8
  %3 = load ptr, ptr %2, align 8
  %4 = getelementptr inbounds %struct.QArrayDataPointer.0, ptr %3, i32 0, i32 0
  store ptr null, ptr %4, align 8
  %5 = getelementptr inbounds %struct.QArrayDataPointer.0, ptr %3, i32 0, i32 1
  store ptr null, ptr %5, align 8
  %6 = getelementptr inbounds %struct.QArrayDataPointer.0, ptr %3, i32 0, i32 2
  store i64 0, ptr %6, align 8
  ret void
}

; Function Attrs: mustprogress nounwind uwtable
define linkonce_odr void @_ZN5QListI7QStringEC2Ev(ptr noundef nonnull align 8 dereferenceable(24) %0) unnamed_addr #1 comdat align 2 {
  %2 = alloca ptr, align 8
  store ptr %0, ptr %2, align 8
  %3 = load ptr, ptr %2, align 8
  %4 = getelementptr inbounds %class.QList, ptr %3, i32 0, i32 0
  call void @_ZN17QArrayDataPointerI7QStringEC2Ev(ptr noundef nonnull align 8 dereferenceable(24) %4) #15
  ret void
}

; Function Attrs: mustprogress uwtable
define void @_ZN11WelcomePage15captureStartingEv(ptr noundef nonnull align 8 dereferenceable(112) %0) #0 align 2 personality ptr @__gxx_personality_v0 {
  %2 = alloca ptr, align 8
  %3 = alloca %class.QList, align 8
  %4 = alloca ptr, align 8
  %5 = alloca i32, align 4
  store ptr %0, ptr %2, align 8
  %6 = load ptr, ptr %2, align 8
  %7 = getelementptr inbounds %class.WelcomePage, ptr %6, i32 0, i32 1
  %8 = load ptr, ptr %7, align 8
  %9 = getelementptr inbounds %class.Ui_WelcomePage, ptr %8, i32 0, i32 19
  %10 = load ptr, ptr %9, align 8
  call void @_ZN14InterfaceFrame23ensureSelectedInterfaceEv(ptr noundef nonnull align 8 dereferenceable(208) %10)
  call void @llvm.memset.p0.i64(ptr align 8 %3, i8 0, i64 24, i1 false)
  call void @_ZN5QListI7QStringEC2Ev(ptr noundef nonnull align 8 dereferenceable(24) %3) #15
  invoke void @_ZN11WelcomePage12startCaptureE5QListI7QStringE(ptr noundef nonnull align 8 dereferenceable(112) %6, ptr noundef %3)
          to label %11 unwind label %12

11:                                               ; preds = %1
  call void @_ZN5QListI7QStringED2Ev(ptr noundef nonnull align 8 dereferenceable(24) %3) #15
  ret void

12:                                               ; preds = %1
  %13 = landingpad { ptr, i32 }
          cleanup
  %14 = extractvalue { ptr, i32 } %13, 0
  store ptr %14, ptr %4, align 8
  %15 = extractvalue { ptr, i32 } %13, 1
  store i32 %15, ptr %5, align 4
  call void @_ZN5QListI7QStringED2Ev(ptr noundef nonnull align 8 dereferenceable(24) %3) #15
  br label %16

16:                                               ; preds = %12
  %17 = load ptr, ptr %4, align 8
  %18 = load i32, ptr %5, align 4
  %19 = insertvalue { ptr, i32 } poison, ptr %17, 0
  %20 = insertvalue { ptr, i32 } %19, i32 %18, 1
  resume { ptr, i32 } %20
}